libpqxx-4.0.so:_ZN4pqxx11cursor_baseC1ERNS_15connection_baseERKNSt7__cxx1112basic_stringIcSt11char_traitsIcESaIcEEEb
libpqxx-4.0.so:_ZN4pqxx11cursor_baseC2ERNS_15connection_baseERKNSt7__cxx1112basic_stringIcSt11char_traitsIcESaIcEEEb
libpqxx-4.0.so:_ZN4pqxx11largeobject13RawConnectionERKNS_13dbtransactionE
libpqxx-4.0.so:_ZN4pqxx11largeobjectC1ERKNS_17largeobjectaccessE
libpqxx-4.0.so:_ZN4pqxx11largeobjectC1ERNS_13dbtransactionE
libpqxx-4.0.so:_ZN4pqxx11largeobjectC1ERNS_13dbtransactionERKNSt7__cxx1112basic_stringIcSt11char_traitsIcESaIcEEE
libpqxx-4.0.so:_ZN4pqxx11largeobjectC1Ev
libpqxx-4.0.so:_ZN4pqxx11largeobjectC2ERKNS_17largeobjectaccessE
libpqxx-4.0.so:_ZN4pqxx11largeobjectC2ERNS_13dbtransactionE
libpqxx-4.0.so:_ZN4pqxx11largeobjectC2ERNS_13dbtransactionERKNSt7__cxx1112basic_stringIcSt11char_traitsIcESaIcEEE
libpqxx-4.0.so:_ZN4pqxx11largeobjectC2Ev
libpqxx-4.0.so:_ZN4pqxx11range_errorC1ERKNSt7__cxx1112basic_stringIcSt11char_traitsIcESaIcEEE
libpqxx-4.0.so:_ZN4pqxx11range_errorC2ERKNSt7__cxx1112basic_stringIcSt11char_traitsIcESaIcEEE
libpqxx-4.0.so:_ZN4pqxx11tablereader12get_raw_lineERNSt7__cxx1112basic_stringIcSt11char_traitsIcESaIcEEE
libpqxx-4.0.so:_ZN4pqxx11tablereader5setupERNS_16transaction_baseERKNSt7__cxx1112basic_stringIcSt11char_traitsIcESaIcEEESA_
libpqxx-4.0.so:_ZN4pqxx11tablereader8completeEv
libpqxx-4.0.so:_ZN4pqxx11tablereaderC1ERNS_16transaction_baseERKNSt7__cxx1112basic_stringIcSt11char_traitsIcESaIcEEESA_
libpqxx-4.0.so:_ZN4pqxx11tablereaderC2ERNS_16transaction_baseERKNSt7__cxx1112basic_stringIcSt11char_traitsIcESaIcEEESA_
libpqxx-4.0.so:_ZN4pqxx11tablereaderD0Ev
libpqxx-4.0.so:_ZN4pqxx11tablereaderD1Ev
libpqxx-4.0.so:_ZN4pqxx11tablereaderD2Ev
libpqxx-4.0.so:_ZN4pqxx11tablestream10base_closeEv
libpqxx-4.0.so:_ZN4pqxx11tablestreamC1ERNS_16transaction_baseERKNSt7__cxx1112basic_stringIcSt11char_traitsIcESaIcEEE
libpqxx-4.0.so:_ZN4pqxx11tablestreamC2ERNS_16transaction_baseERKNSt7__cxx1112basic_stringIcSt11char_traitsIcESaIcEEE
libpqxx-4.0.so:_ZN4pqxx11tablestreamD0Ev
libpqxx-4.0.so:_ZN4pqxx11tablestreamD1Ev
libpqxx-4.0.so:_ZN4pqxx11tablestreamD2Ev
libpqxx-4.0.so:_ZN4pqxx11tablewriter14write_raw_lineERKNSt7__cxx1112basic_stringIcSt11char_traitsIcESaIcEEE
libpqxx-4.0.so:_ZN4pqxx11tablewriter5setupERNS_16transaction_baseERKNSt7__cxx1112basic_stringIcSt11char_traitsIcESaIcEEESA_
libpqxx-4.0.so:_ZN4pqxx11tablewriter8completeEv
libpqxx-4.0.so:_ZN4pqxx11tablewriterC1ERNS_16transaction_baseERKNSt7__cxx1112basic_stringIcSt11char_traitsIcESaIcEEESA_
libpqxx-4.0.so:_ZN4pqxx11tablewriterC2ERNS_16transaction_baseERKNSt7__cxx1112basic_stringIcSt11char_traitsIcESaIcEEESA_
libpqxx-4.0.so:_ZN4pqxx11tablewriterD0Ev
libpqxx-4.0.so:_ZN4pqxx11tablewriterD1Ev
libpqxx-4.0.so:_ZN4pqxx11tablewriterD2Ev
libpqxx-4.0.so:_ZN4pqxx11tablewriterlsERNS_11tablereaderE
libpqxx-4.0.so:_ZN4pqxx11usage_errorC1ERKNSt7__cxx1112basic_stringIcSt11char_traitsIcESaIcEEE
libpqxx-4.0.so:_ZN4pqxx11usage_errorC2ERKNSt7__cxx1112basic_stringIcSt11char_traitsIcESaIcEEE
libpqxx-4.0.so:_ZN4pqxx12binarystring4swapERS0_
libpqxx-4.0.so:_ZN4pqxx12binarystringC1EPKvm
libpqxx-4.0.so:_ZN4pqxx12binarystringC1ERKNS_5fieldE
libpqxx-4.0.so:_ZN4pqxx12binarystringC1ERKNSt7__cxx1112basic_stringIcSt11char_traitsIcESaIcEEE
libpqxx-4.0.so:_ZN4pqxx12binarystringC2EPKvm
libpqxx-4.0.so:_ZN4pqxx12binarystringC2ERKNS_5fieldE
libpqxx-4.0.so:_ZN4pqxx12binarystringC2ERKNSt7__cxx1112basic_stringIcSt11char_traitsIcESaIcEEE
libpqxx-4.0.so:_ZN4pqxx12connect_lazy18do_completeconnectEP7pg_conn
libpqxx-4.0.so:_ZN4pqxx12errorhandler10unregisterEv
libpqxx-4.0.so:_ZN4pqxx12errorhandlerC1ERNS_15connection_baseE
libpqxx-4.0.so:_ZN4pqxx12errorhandlerC2ERNS_15connection_baseE
libpqxx-4.0.so:_ZN4pqxx12errorhandlerD0Ev
libpqxx-4.0.so:_ZN4pqxx12errorhandlerD1Ev
libpqxx-4.0.so:_ZN4pqxx12errorhandlerD2Ev
libpqxx-4.0.so:_ZN4pqxx13connect_async14do_dropconnectEP7pg_conn
libpqxx-4.0.so:_ZN4pqxx13connect_async15do_startconnectEP7pg_conn
libpqxx-4.0.so:_ZN4pqxx13connect_async18do_completeconnectEP7pg_conn
libpqxx-4.0.so:_ZN4pqxx13connect_asyncC1ERKNSt7__cxx1112basic_stringIcSt11char_traitsIcESaIcEEE
libpqxx-4.0.so:_ZN4pqxx13connect_asyncC2ERKNSt7__cxx1112basic_stringIcSt11char_traitsIcESaIcEEE
libpqxx-4.0.so:_ZN4pqxx13dbtransaction7do_execEPKc
libpqxx-4.0.so:_ZN4pqxx13dbtransaction8do_abortEv
libpqxx-4.0.so:_ZN4pqxx13dbtransaction8do_beginEv
libpqxx-4.0.so:_ZN4pqxx13dbtransaction8fullnameERKNSt7__cxx1112basic_stringIcSt11char_traitsIcESaIcEEES8_
libpqxx-4.0.so:_ZN4pqxx13dbtransactionC1ERNS_15connection_baseERKNSt7__cxx1112basic_stringIcSt11char_traitsIcESaIcEEENS_16readwrite_policyE
libpqxx-4.0.so:_ZN4pqxx13dbtransactionC1ERNS_15connection_baseEbNS_16readwrite_policyE
libpqxx-4.0.so:_ZN4pqxx13dbtransactionC2ERNS_15connection_baseERKNSt7__cxx1112basic_stringIcSt11char_traitsIcESaIcEEENS_16readwrite_policyE
libpqxx-4.0.so:_ZN4pqxx13dbtransactionC2ERNS_15connection_baseEbNS_16readwrite_policyE
libpqxx-4.0.so:_ZN4pqxx13dbtransactionD0Ev
libpqxx-4.0.so:_ZN4pqxx13dbtransactionD1Ev
libpqxx-4.0.so:_ZN4pqxx13dbtransactionD2Ev
libpqxx-4.0.so:_ZN4pqxx13escape_binaryB5cxx11EPKc
libpqxx-4.0.so:_ZN4pqxx13escape_binaryB5cxx11EPKcm
libpqxx-4.0.so:_ZN4pqxx13escape_binaryB5cxx11EPKh
libpqxx-4.0.so:_ZN4pqxx13escape_binaryB5cxx11EPKhm
libpqxx-4.0.so:_ZN4pqxx13escape_binaryERKNSt7__cxx1112basic_stringIcSt11char_traitsIcESaIcEEE
libpqxx-4.0.so:_ZN4pqxx13icursorstream10fetchblockEv
libpqxx-4.0.so:_ZN4pqxx13icursorstream10set_strideEl
libpqxx-4.0.so:_ZN4pqxx13icursorstream15insert_iteratorEPNS_16icursor_iteratorE
libpqxx-4.0.so:_ZN4pqxx13icursorstream17service_iteratorsEl
libpqxx-4.0.so:_ZN4pqxx13icursorstream6ignoreEl
libpqxx-4.0.so:_ZN4pqxx13icursorstream7forwardEm
libpqxx-4.0.so:_ZN4pqxx13icursorstreamC1ERNS_16transaction_baseERKNS_5fieldElNS_11cursor_base15ownershippolicyE
libpqxx-4.0.so:_ZN4pqxx13icursorstreamC1ERNS_16transaction_baseERKNSt7__cxx1112basic_stringIcSt11char_traitsIcESaIcEEESA_l
libpqxx-4.0.so:_ZN4pqxx13icursorstreamC2ERNS_16transaction_baseERKNS_5fieldElNS_11cursor_base15ownershippolicyE
libpqxx-4.0.so:_ZN4pqxx13icursorstreamC2ERNS_16transaction_baseERKNSt7__cxx1112basic_stringIcSt11char_traitsIcESaIcEEESA_l
libpqxx-4.0.so:_ZN4pqxx13string_traitsIbE11from_stringEPKcRb
libpqxx-4.0.so:_ZN4pqxx13string_traitsIbE9to_stringB5cxx11Eb
libpqxx-4.0.so:_ZN4pqxx13string_traitsIdE11from_stringEPKcRd
libpqxx-4.0.so:_ZN4pqxx13string_traitsIdE9to_stringB5cxx11Ed
libpqxx-4.0.so:_ZN4pqxx13string_traitsIeE11from_stringEPKcRe
libpqxx-4.0.so:_ZN4pqxx13string_traitsIeE9to_stringB5cxx11Ee
libpqxx-4.0.so:_ZN4pqxx13string_traitsIfE11from_stringEPKcRf
libpqxx-4.0.so:_ZN4pqxx13string_traitsIfE9to_stringB5cxx11Ef
libpqxx-4.0.so:_ZN4pqxx13string_traitsIiE11from_stringEPKcRi
libpqxx-4.0.so:_ZN4pqxx13string_traitsIiE9to_stringB5cxx11Ei
libpqxx-4.0.so:_ZN4pqxx13string_traitsIjE11from_stringEPKcRj
libpqxx-4.0.so:_ZN4pqxx13string_traitsIjE9to_stringB5cxx11Ej
libpqxx-4.0.so:_ZN4pqxx13string_traitsIlE11from_stringEPKcRl
libpqxx-4.0.so:_ZN4pqxx13string_traitsIlE9to_stringB5cxx11El
libpqxx-4.0.so:_ZN4pqxx13string_traitsImE11from_stringEPKcRm
libpqxx-4.0.so:_ZN4pqxx13string_traitsImE9to_stringB5cxx11Em
libpqxx-4.0.so:_ZN4pqxx13string_traitsIsE11from_stringEPKcRs
libpqxx-4.0.so:_ZN4pqxx13string_traitsIsE9to_stringB5cxx11Es
libpqxx-4.0.so:_ZN4pqxx13string_traitsItE11from_stringEPKcRt
libpqxx-4.0.so:_ZN4pqxx13string_traitsItE9to_stringB5cxx11Et
libpqxx-4.0.so:_ZN4pqxx13string_traitsIxE11from_stringEPKcRx
libpqxx-4.0.so:_ZN4pqxx13string_traitsIxE9to_stringB5cxx11Ex
libpqxx-4.0.so:_ZN4pqxx13string_traitsIyE11from_stringEPKcRy
libpqxx-4.0.so:_ZN4pqxx13string_traitsIyE9to_stringB5cxx11Ey
libpqxx-4.0.so:_ZN4pqxx14argument_errorC1ERKNSt7__cxx1112basic_stringIcSt11char_traitsIcESaIcEEE
libpqxx-4.0.so:_ZN4pqxx14argument_errorC2ERKNSt7__cxx1112basic_stringIcSt11char_traitsIcESaIcEEE
libpqxx-4.0.so:_ZN4pqxx14connect_direct15do_startconnectEP7pg_conn
libpqxx-4.0.so:_ZN4pqxx14in_doubt_errorC1ERKNSt7__cxx1112basic_stringIcSt11char_traitsIcESaIcEEE
libpqxx-4.0.so:_ZN4pqxx14in_doubt_errorC2ERKNSt7__cxx1112basic_stringIcSt11char_traitsIcESaIcEEE
libpqxx-4.0.so:_ZN4pqxx14internal_errorC1ERKNSt7__cxx1112basic_stringIcSt11char_traitsIcESaIcEEE
libpqxx-4.0.so:_ZN4pqxx14internal_errorC2ERKNSt7__cxx1112basic_stringIcSt11char_traitsIcESaIcEEE
libpqxx-4.0.so:_ZN4pqxx14nontransaction7do_execEPKc
libpqxx-4.0.so:_ZN4pqxx14nontransactionD0Ev
libpqxx-4.0.so:_ZN4pqxx14nontransactionD1Ev
libpqxx-4.0.so:_ZN4pqxx14nontransactionD2Ev
libpqxx-4.0.so:_ZN4pqxx14pqxx_exceptionD0Ev
libpqxx-4.0.so:_ZN4pqxx14pqxx_exceptionD1Ev
libpqxx-4.0.so:_ZN4pqxx14pqxx_exceptionD2Ev
libpqxx-4.0.so:_ZN4pqxx14subtransaction8do_abortEv
libpqxx-4.0.so:_ZN4pqxx14subtransaction8do_beginEv
libpqxx-4.0.so:_ZN4pqxx14subtransaction9do_commitEv
libpqxx-4.0.so:_ZN4pqxx14subtransactionC1ERNS_13dbtransactionERKNSt7__cxx1112basic_stringIcSt11char_traitsIcESaIcEEE
libpqxx-4.0.so:_ZN4pqxx14subtransactionC1ERS0_RKNSt7__cxx1112basic_stringIcSt11char_traitsIcESaIcEEE
libpqxx-4.0.so:_ZN4pqxx14subtransactionC2ERNS_13dbtransactionERKNSt7__cxx1112basic_stringIcSt11char_traitsIcESaIcEEE
libpqxx-4.0.so:_ZN4pqxx14subtransactionC2ERS0_RKNSt7__cxx1112basic_stringIcSt11char_traitsIcESaIcEEE
libpqxx-4.0.so:_ZN4pqxx15connection_base10adorn_nameERKNSt7__cxx1112basic_stringIcSt11char_traitsIcESaIcEEE
libpqxx-4.0.so:_ZN4pqxx15connection_base10deactivateEv
libpqxx-4.0.so:_ZN4pqxx15connection_base10disconnectEv
libpqxx-4.0.so:_ZN4pqxx15connection_base10get_notifsEv
libpqxx-4.0.so:_ZN4pqxx15connection_base10get_resultEv
libpqxx-4.0.so:_ZN4pqxx15connection_base10quote_nameERKNSt7__cxx1112basic_stringIcSt11char_traitsIcESaIcEEE
libpqxx-4.0.so:_ZN4pqxx15connection_base11make_resultEP9pg_resultRKNSt7__cxx1112basic_stringIcSt11char_traitsIcESaIcEEE
libpqxx-4.0.so:_ZN4pqxx15connection_base11prepare_nowERKNSt7__cxx1112basic_stringIcSt11char_traitsIcESaIcEEE
libpqxx-4.0.so:_ZN4pqxx15connection_base12add_receiverEPNS_21notification_receiverE
libpqxx-4.0.so:_ZN4pqxx15connection_base12cancel_queryEv
libpqxx-4.0.so:_ZN4pqxx15connection_base12get_variableERKNSt7__cxx1112basic_stringIcSt11char_traitsIcESaIcEEE
libpqxx-4.0.so:_ZN4pqxx15connection_base12set_variableERKNSt7__cxx1112basic_stringIcSt11char_traitsIcESaIcEEES8_
libpqxx-4.0.so:_ZN4pqxx15connection_base13find_preparedERKNSt7__cxx1112basic_stringIcSt11char_traitsIcESaIcEEE
libpqxx-4.0.so:_ZN4pqxx15connection_base13prepared_execERKNSt7__cxx1112basic_stringIcSt11char_traitsIcESaIcEEEPKPKcPKiSE_i
libpqxx-4.0.so:_ZN4pqxx15connection_base13set_verbosityENS0_15error_verbosityE
libpqxx-4.0.so:_ZN4pqxx15connection_base14process_noticeEPKc
libpqxx-4.0.so:_ZN4pqxx15connection_base14process_noticeERKNSt7__cxx1112basic_stringIcSt11char_traitsIcESaIcEEE
libpqxx-4.0.so:_ZN4pqxx15connection_base15remove_receiverEPNS_21notification_receiverE
libpqxx-4.0.so:_ZN4pqxx15connection_base16simulate_failureEv
libpqxx-4.0.so:_ZN4pqxx15connection_base17read_capabilitiesEv
libpqxx-4.0.so:_ZN4pqxx15connection_base17register_preparedERKNSt7__cxx1112basic_stringIcSt11char_traitsIcESaIcEEE
libpqxx-4.0.so:_ZN4pqxx15connection_base18await_notificationEll
libpqxx-4.0.so:_ZN4pqxx15connection_base18await_notificationEv
libpqxx-4.0.so:_ZN4pqxx15connection_base18parameterized_execERKNSt7__cxx1112basic_stringIcSt11char_traitsIcESaIcEEEPKPKcPKiSE_i
libpqxx-4.0.so:_ZN4pqxx15connection_base32add_reactivation_avoidance_countEi
libpqxx-4.0.so:_ZN4pqxx15connection_base3escB5cxx11EPKc
libpqxx-4.0.so:_ZN4pqxx15connection_base3escB5cxx11EPKcm
libpqxx-4.0.so:_ZN4pqxx15connection_base3escERKNSt7__cxx1112basic_stringIcSt11char_traitsIcESaIcEEE
libpqxx-4.0.so:_ZN4pqxx15connection_base4initEv
libpqxx-4.0.so:_ZN4pqxx15connection_base4portEv
libpqxx-4.0.so:_ZN4pqxx15connection_base5closeEv
libpqxx-4.0.so:_ZN4pqxx15connection_base5quoteB5cxx11ERKNS_12binarystringE
libpqxx-4.0.so:_ZN4pqxx15connection_base5traceEP8_IO_FILE
libpqxx-4.0.so:_ZN4pqxx15connection_base6dbnameEv
libpqxx-4.0.so:_ZN4pqxx15connection_base7esc_rawB5cxx11EPKhm
libpqxx-4.0.so:_ZN4pqxx15connection_base7prepareERKNSt7__cxx1112basic_stringIcSt11char_traitsIcESaIcEEE
libpqxx-4.0.so:_ZN4pqxx15connection_base7prepareERKNSt7__cxx1112basic_stringIcSt11char_traitsIcESaIcEEES8_
libpqxx-4.0.so:_ZN4pqxx15connection_base8activateEv
libpqxx-4.0.so:_ZN4pqxx15connection_base8hostnameEv
libpqxx-4.0.so:_ZN4pqxx15connection_base8usernameEv
libpqxx-4.0.so:_ZN4pqxx15connection_base9quote_rawB5cxx11EPKhm
libpqxx-4.0.so:_ZN4pqxx15connection_base9unprepareERKNSt7__cxx1112basic_stringIcSt11char_traitsIcESaIcEEE
libpqxx-4.0.so:_ZN4pqxx15connection_baseC1ERNS_16connectionpolicyE
libpqxx-4.0.so:_ZN4pqxx15connection_baseC2ERNS_16connectionpolicyE
libpqxx-4.0.so:_ZN4pqxx15notify_listenerC1ERNS_15connection_baseERKNSt7__cxx1112basic_stringIcSt11char_traitsIcESaIcEEE
libpqxx-4.0.so:_ZN4pqxx15notify_listenerC2ERNS_15connection_baseERKNSt7__cxx1112basic_stringIcSt11char_traitsIcESaIcEEE
libpqxx-4.0.so:_ZN4pqxx15notify_listenerD0Ev
libpqxx-4.0.so:_ZN4pqxx15notify_listenerD1Ev
libpqxx-4.0.so:_ZN4pqxx15notify_listenerD2Ev
libpqxx-4.0.so:_ZN4pqxx16connectionpolicy13do_disconnectEP7pg_conn
libpqxx-4.0.so:_ZN4pqxx16connectionpolicy13normalconnectEP7pg_conn
libpqxx-4.0.so:_ZN4pqxx16connectionpolicy14do_dropconnectEP7pg_conn
libpqxx-4.0.so:_ZN4pqxx16connectionpolicy15do_startconnectEP7pg_conn
libpqxx-4.0.so:_ZN4pqxx16connectionpolicy18do_completeconnectEP7pg_conn
libpqxx-4.0.so:_ZN4pqxx16connectionpolicyC1ERKNSt7__cxx1112basic_stringIcSt11char_traitsIcESaIcEEE
libpqxx-4.0.so:_ZN4pqxx16connectionpolicyC2ERKNSt7__cxx1112basic_stringIcSt11char_traitsIcESaIcEEE
libpqxx-4.0.so:_ZN4pqxx16connectionpolicyD0Ev
libpqxx-4.0.so:_ZN4pqxx16connectionpolicyD1Ev
libpqxx-4.0.so:_ZN4pqxx16connectionpolicyD2Ev
libpqxx-4.0.so:_ZN4pqxx16conversion_errorC1ERKNSt7__cxx1112basic_stringIcSt11char_traitsIcESaIcEEE
libpqxx-4.0.so:_ZN4pqxx16conversion_errorC2ERKNSt7__cxx1112basic_stringIcSt11char_traitsIcESaIcEEE
libpqxx-4.0.so:_ZN4pqxx16encrypt_passwordERKNSt7__cxx1112basic_stringIcSt11char_traitsIcESaIcEEES7_
libpqxx-4.0.so:_ZN4pqxx16icursor_iterator4fillERKNS_6resultE
libpqxx-4.0.so:_ZN4pqxx16icursor_iteratorC1ERKS0_
libpqxx-4.0.so:_ZN4pqxx16icursor_iteratorC1ERNS_13icursorstreamE
libpqxx-4.0.so:_ZN4pqxx16icursor_iteratorC1Ev
libpqxx-4.0.so:_ZN4pqxx16icursor_iteratorC2ERKS0_
libpqxx-4.0.so:_ZN4pqxx16icursor_iteratorC2ERNS_13icursorstreamE
libpqxx-4.0.so:_ZN4pqxx16icursor_iteratorC2Ev
libpqxx-4.0.so:_ZN4pqxx16icursor_iteratorD1Ev
libpqxx-4.0.so:_ZN4pqxx16icursor_iteratorD2Ev
libpqxx-4.0.so:_ZN4pqxx16icursor_iteratoraSERKS0_
libpqxx-4.0.so:_ZN4pqxx16icursor_iteratorpLEl
libpqxx-4.0.so:_ZN4pqxx16icursor_iteratorppEi
libpqxx-4.0.so:_ZN4pqxx16icursor_iteratorppEv
libpqxx-4.0.so:_ZN4pqxx16transaction_base10DirectExecEPKci
libpqxx-4.0.so:_ZN4pqxx16transaction_base12EndCopyWriteEv
libpqxx-4.0.so:_ZN4pqxx16transaction_base12ReadCopyLineERNSt7__cxx1112basic_stringIcSt11char_traitsIcESaIcEEE
libpqxx-4.0.so:_ZN4pqxx16transaction_base12get_variableERKNSt7__cxx1112basic_stringIcSt11char_traitsIcESaIcEEE
libpqxx-4.0.so:_ZN4pqxx16transaction_base12set_variableERKNSt7__cxx1112basic_stringIcSt11char_traitsIcESaIcEEES8_
libpqxx-4.0.so:_ZN4pqxx16transaction_base13WriteCopyLineERKNSt7__cxx1112basic_stringIcSt11char_traitsIcESaIcEEE
libpqxx-4.0.so:_ZN4pqxx16transaction_base13parameterizedERKNSt7__cxx1112basic_stringIcSt11char_traitsIcESaIcEEE
libpqxx-4.0.so:_ZN4pqxx16transaction_base3EndEv
libpqxx-4.0.so:_ZN4pqxx16transaction_base4execERKNSt7__cxx1112basic_stringIcSt11char_traitsIcESaIcEEES8_
libpqxx-4.0.so:_ZN4pqxx16transaction_base5BeginEv
libpqxx-4.0.so:_ZN4pqxx16transaction_base5abortEv
libpqxx-4.0.so:_ZN4pqxx16transaction_base6commitEv
libpqxx-4.0.so:_ZN4pqxx16transaction_base8preparedERKNSt7__cxx1112basic_stringIcSt11char_traitsIcESaIcEEE
libpqxx-4.0.so:_ZN4pqxx16transaction_baseC1ERNS_15connection_baseEb
libpqxx-4.0.so:_ZN4pqxx16transaction_baseC2ERNS_15connection_baseEb
libpqxx-4.0.so:_ZN4pqxx16transaction_baseD0Ev
libpqxx-4.0.so:_ZN4pqxx16transaction_baseD1Ev
libpqxx-4.0.so:_ZN4pqxx16transaction_baseD2Ev
libpqxx-4.0.so:_ZN4pqxx17basic_transaction9do_commitEv
libpqxx-4.0.so:_ZN4pqxx17basic_transactionC1ERNS_15connection_baseERKNSt7__cxx1112basic_stringIcSt11char_traitsIcESaIcEEENS_16readwrite_policyE
libpqxx-4.0.so:_ZN4pqxx17basic_transactionC2ERNS_15connection_baseERKNSt7__cxx1112basic_stringIcSt11char_traitsIcESaIcEEENS_16readwrite_policyE
libpqxx-4.0.so:_ZN4pqxx17broken_connectionC1ERKNSt7__cxx1112basic_stringIcSt11char_traitsIcESaIcEEE
libpqxx-4.0.so:_ZN4pqxx17broken_connectionC1Ev
libpqxx-4.0.so:_ZN4pqxx17broken_connectionC2ERKNSt7__cxx1112basic_stringIcSt11char_traitsIcESaIcEEE
libpqxx-4.0.so:_ZN4pqxx17broken_connectionC2Ev
libpqxx-4.0.so:_ZN4pqxx17largeobjectaccess14process_noticeERKNSt7__cxx1112basic_stringIcSt11char_traitsIcESaIcEEE
libpqxx-4.0.so:_ZN4pqxx17largeobjectaccess4openESt13_Ios_Openmode
libpqxx-4.0.so:_ZN4pqxx17largeobjectaccess4readEPcl
libpqxx-4.0.so:_ZN4pqxx17largeobjectaccess4seekElSt12_Ios_Seekdir
libpqxx-4.0.so:_ZN4pqxx17largeobjectaccess5closeEv
libpqxx-4.0.so:_ZN4pqxx17largeobjectaccess5creadEPcl
libpqxx-4.0.so:_ZN4pqxx17largeobjectaccess5cseekElSt12_Ios_Seekdir
libpqxx-4.0.so:_ZN4pqxx17largeobjectaccess5writeEPKcl
libpqxx-4.0.so:_ZN4pqxx17largeobjectaccess6cwriteEPKcl
libpqxx-4.0.so:_ZN4pqxx17largeobjectaccessC1ERNS_13dbtransactionENS_11largeobjectESt13_Ios_Openmode
libpqxx-4.0.so:_ZN4pqxx17largeobjectaccessC1ERNS_13dbtransactionERKNSt7__cxx1112basic_stringIcSt11char_traitsIcESaIcEEESt13_Ios_Openmode
libpqxx-4.0.so:_ZN4pqxx17largeobjectaccessC1ERNS_13dbtransactionESt13_Ios_Openmode
libpqxx-4.0.so:_ZN4pqxx17largeobjectaccessC1ERNS_13dbtransactionEjSt13_Ios_Openmode
libpqxx-4.0.so:_ZN4pqxx17largeobjectaccessC2ERNS_13dbtransactionENS_11largeobjectESt13_Ios_Openmode
libpqxx-4.0.so:_ZN4pqxx17largeobjectaccessC2ERNS_13dbtransactionERKNSt7__cxx1112basic_stringIcSt11char_traitsIcESaIcEEESt13_Ios_Openmode
libpqxx-4.0.so:_ZN4pqxx17largeobjectaccessC2ERNS_13dbtransactionESt13_Ios_Openmode
libpqxx-4.0.so:_ZN4pqxx17largeobjectaccessC2ERNS_13dbtransactionEjSt13_Ios_Openmode
libpqxx-4.0.so:_ZN4pqxx20const_tuple_iteratormmEi
libpqxx-4.0.so:_ZN4pqxx20const_tuple_iteratorppEi
libpqxx-4.0.so:_ZN4pqxx21const_result_iteratormmEi
libpqxx-4.0.so:_ZN4pqxx21const_result_iteratorppEi
libpqxx-4.0.so:_ZN4pqxx21notification_receiverC1ERNS_15connection_baseERKNSt7__cxx1112basic_stringIcSt11char_traitsIcESaIcEEE
libpqxx-4.0.so:_ZN4pqxx21notification_receiverC2ERNS_15connection_baseERKNSt7__cxx1112basic_stringIcSt11char_traitsIcESaIcEEE
libpqxx-4.0.so:_ZN4pqxx21notification_receiverD0Ev
libpqxx-4.0.so:_ZN4pqxx21notification_receiverD1Ev
libpqxx-4.0.so:_ZN4pqxx21notification_receiverD2Ev
libpqxx-4.0.so:_ZN4pqxx22describe_thread_safetyEv
libpqxx-4.0.so:_ZN4pqxx23basic_robusttransaction8do_abortEv
libpqxx-4.0.so:_ZN4pqxx23basic_robusttransaction8do_beginEv
libpqxx-4.0.so:_ZN4pqxx23basic_robusttransaction9do_commitEv
libpqxx-4.0.so:_ZN4pqxx23basic_robusttransactionC1ERNS_15connection_baseERKNSt7__cxx1112basic_stringIcSt11char_traitsIcESaIcEEESA_
libpqxx-4.0.so:_ZN4pqxx23basic_robusttransactionC2ERNS_15connection_baseERKNSt7__cxx1112basic_stringIcSt11char_traitsIcESaIcEEESA_
libpqxx-4.0.so:_ZN4pqxx23basic_robusttransactionD0Ev
libpqxx-4.0.so:_ZN4pqxx23basic_robusttransactionD1Ev
libpqxx-4.0.so:_ZN4pqxx23basic_robusttransactionD2Ev
libpqxx-4.0.so:_ZN4pqxx28const_reverse_tuple_iteratormmEi
libpqxx-4.0.so:_ZN4pqxx28const_reverse_tuple_iteratorppEi
libpqxx-4.0.so:_ZN4pqxx29const_reverse_result_iteratormmEi
libpqxx-4.0.so:_ZN4pqxx29const_reverse_result_iteratorppEi
libpqxx-4.0.so:_ZN4pqxx5fieldC1ERKNS_5tupleEj
libpqxx-4.0.so:_ZN4pqxx5fieldC2ERKNS_5tupleEj
libpqxx-4.0.so:_ZN4pqxx5tuple4swapERS0_
libpqxx-4.0.so:_ZN4pqxx5tupleC1EPKNS_6resultEm
libpqxx-4.0.so:_ZN4pqxx5tupleC2EPKNS_6resultEm
libpqxx-4.0.so:_ZN4pqxx6result4swapERS0_
libpqxx-4.0.so:_ZN4pqxx6resultC1EP9pg_resultiRKNSt7__cxx1112basic_stringIcSt11char_traitsIcESaIcEEEi
libpqxx-4.0.so:_ZN4pqxx6resultC2EP9pg_resultiRKNSt7__cxx1112basic_stringIcSt11char_traitsIcESaIcEEEi
libpqxx-4.0.so:_ZN4pqxx7failureC1ERKNSt7__cxx1112basic_stringIcSt11char_traitsIcESaIcEEE
libpqxx-4.0.so:_ZN4pqxx7failureC2ERKNSt7__cxx1112basic_stringIcSt11char_traitsIcESaIcEEE
libpqxx-4.0.so:_ZN4pqxx7prepare10invocationC1ERNS_16transaction_baseERKNSt7__cxx1112basic_stringIcSt11char_traitsIcESaIcEEE
libpqxx-4.0.so:_ZN4pqxx7prepare10invocationC2ERNS_16transaction_baseERKNSt7__cxx1112basic_stringIcSt11char_traitsIcESaIcEEE
libpqxx-4.0.so:_ZN4pqxx7prepare8internal12prepared_defC1ERKNSt7__cxx1112basic_stringIcSt11char_traitsIcESaIcEEE
libpqxx-4.0.so:_ZN4pqxx7prepare8internal12prepared_defC1Ev
libpqxx-4.0.so:_ZN4pqxx7prepare8internal12prepared_defC2ERKNSt7__cxx1112basic_stringIcSt11char_traitsIcESaIcEEE
libpqxx-4.0.so:_ZN4pqxx7prepare8internal12prepared_defC2Ev
libpqxx-4.0.so:_ZN4pqxx8internal10sql_cursor12stridestringB5cxx11El
libpqxx-4.0.so:_ZN4pqxx8internal10sql_cursor17init_empty_resultERNS_16transaction_baseE
libpqxx-4.0.so:_ZN4pqxx8internal10sql_cursor4moveElRl
libpqxx-4.0.so:_ZN4pqxx8internal10sql_cursor5closeEv
libpqxx-4.0.so:_ZN4pqxx8internal10sql_cursor5fetchElRl
libpqxx-4.0.so:_ZN4pqxx8internal10sql_cursor6adjustEll
libpqxx-4.0.so:_ZN4pqxx8internal10sql_cursorC1ERNS_16transaction_baseERKNSt7__cxx1112basic_stringIcSt11char_traitsIcESaIcEEENS_11cursor_base15ownershippolicyE
libpqxx-4.0.so:_ZN4pqxx8internal10sql_cursorC1ERNS_16transaction_baseERKNSt7__cxx1112basic_stringIcSt11char_traitsIcESaIcEEESB_NS_11cursor_base12accesspolicyENSC_12updatepolicyENSC_15ownershippolicyEb
libpqxx-4.0.so:_ZN4pqxx8internal10sql_cursorC2ERNS_16transaction_baseERKNSt7__cxx1112basic_stringIcSt11char_traitsIcESaIcEEENS_11cursor_base15ownershippolicyE
libpqxx-4.0.so:_ZN4pqxx8internal10sql_cursorC2ERNS_16transaction_baseERKNSt7__cxx1112basic_stringIcSt11char_traitsIcESaIcEEESB_NS_11cursor_base12accesspolicyENSC_12updatepolicyENSC_15ownershippolicyEb
libpqxx-4.0.so:_ZN4pqxx8internal10wait_writeEPK7pg_conn
libpqxx-4.0.so:_ZN4pqxx8internal13freemallocmemEPKv
libpqxx-4.0.so:_ZN4pqxx8internal13sleep_secondsEi
libpqxx-4.0.so:_ZN4pqxx8internal16strerror_wrapperEiPcm
libpqxx-4.0.so:_ZN4pqxx8internal16transactionfocus11register_meEv
libpqxx-4.0.so:_ZN4pqxx8internal16transactionfocus13unregister_meEv
libpqxx-4.0.so:_ZN4pqxx8internal16transactionfocus17reg_pending_errorERKNSt7__cxx1112basic_stringIcSt11char_traitsIcESaIcEEE
libpqxx-4.0.so:_ZN4pqxx8internal19freemem_result_dataEPKNS0_11result_dataE
libpqxx-4.0.so:_ZN4pqxx8internal20statement_parameters17add_checked_paramERKNSt7__cxx1112basic_stringIcSt11char_traitsIcESaIcEEEbb
libpqxx-4.0.so:_ZN4pqxx8internal20statement_parametersC1Ev
libpqxx-4.0.so:_ZN4pqxx8internal20statement_parametersC2Ev
libpqxx-4.0.so:_ZN4pqxx8internal21throw_null_conversionERKNSt7__cxx1112basic_stringIcSt11char_traitsIcESaIcEEE
libpqxx-4.0.so:_ZN4pqxx8internal23CheckUniqueRegistrationEPKNS0_10namedclassES3_
libpqxx-4.0.so:_ZN4pqxx8internal24parameterized_invocation4execEv
libpqxx-4.0.so:_ZN4pqxx8internal24parameterized_invocationC1ERNS_15connection_baseERKNSt7__cxx1112basic_stringIcSt11char_traitsIcESaIcEEE
libpqxx-4.0.so:_ZN4pqxx8internal24parameterized_invocationC2ERNS_15connection_baseERKNSt7__cxx1112basic_stringIcSt11char_traitsIcESaIcEEE
libpqxx-4.0.so:_ZN4pqxx8internal25CheckUniqueUnregistrationEPKNS0_10namedclassES3_
libpqxx-4.0.so:_ZN4pqxx8internal25notify_listener_forwarderclERKNSt7__cxx1112basic_stringIcSt11char_traitsIcESaIcEEEi
libpqxx-4.0.so:_ZN4pqxx8internal25stateless_cursor_retrieveERNS0_10sql_cursorElll
libpqxx-4.0.so:_ZN4pqxx8internal28obtain_stateless_cursor_sizeERNS0_10sql_cursorE
libpqxx-4.0.so:_ZN4pqxx8internal32reactivation_avoidance_exemptionC1ERNS_15connection_baseE
libpqxx-4.0.so:_ZN4pqxx8internal32reactivation_avoidance_exemptionC2ERNS_15connection_baseE
libpqxx-4.0.so:_ZN4pqxx8internal32reactivation_avoidance_exemptionD1Ev
libpqxx-4.0.so:_ZN4pqxx8internal32reactivation_avoidance_exemptionD2Ev
libpqxx-4.0.so:_ZN4pqxx8internal6EscapeERKNSt7__cxx1112basic_stringIcSt11char_traitsIcESaIcEEES8_
libpqxx-4.0.so:_ZN4pqxx8internal9freepqmemEPKv
libpqxx-4.0.so:_ZN4pqxx8internal9wait_readEPK7pg_conn
libpqxx-4.0.so:_ZN4pqxx8internal9wait_readEPK7pg_connll
libpqxx-4.0.so:_ZN4pqxx8pipeline5flushEv
libpqxx-4.0.so:_ZN4pqxx8pipeline6attachEv
libpqxx-4.0.so:_ZN4pqxx8pipeline6cancelEv
libpqxx-4.0.so:_ZN4pqxx8pipeline6detachEv
libpqxx-4.0.so:_ZN4pqxx8pipeline6insertERKNSt7__cxx1112basic_stringIcSt11char_traitsIcESaIcEEE
libpqxx-4.0.so:_ZN4pqxx8pipeline6resumeEv
libpqxx-4.0.so:_ZN4pqxx8pipeline6retainEi
libpqxx-4.0.so:_ZN4pqxx8pipeline8completeEv
libpqxx-4.0.so:_ZN4pqxx8pipeline8retrieveESt17_Rb_tree_iteratorISt4pairIKlNS0_5QueryEEE
libpqxx-4.0.so:_ZN4pqxx8pipeline8retrieveEv
libpqxx-4.0.so:_ZN4pqxx8pipelineC1ERNS_16transaction_baseERKNSt7__cxx1112basic_stringIcSt11char_traitsIcESaIcEEE
libpqxx-4.0.so:_ZN4pqxx8pipelineC2ERNS_16transaction_baseERKNSt7__cxx1112basic_stringIcSt11char_traitsIcESaIcEEE
libpqxx-4.0.so:_ZN4pqxx8pipelineD1Ev
libpqxx-4.0.so:_ZN4pqxx8pipelineD2Ev
libpqxx-4.0.so:_ZN4pqxx9sql_errorC1ERKNSt7__cxx1112basic_stringIcSt11char_traitsIcESaIcEEE
libpqxx-4.0.so:_ZN4pqxx9sql_errorC1ERKNSt7__cxx1112basic_stringIcSt11char_traitsIcESaIcEEES8_
libpqxx-4.0.so:_ZN4pqxx9sql_errorC1Ev
libpqxx-4.0.so:_ZN4pqxx9sql_errorC2ERKNSt7__cxx1112basic_stringIcSt11char_traitsIcESaIcEEE
libpqxx-4.0.so:_ZN4pqxx9sql_errorC2ERKNSt7__cxx1112basic_stringIcSt11char_traitsIcESaIcEEES8_
libpqxx-4.0.so:_ZN4pqxx9sql_errorC2Ev
libpqxx-4.0.so:_ZN4pqxx9sql_errorD0Ev
libpqxx-4.0.so:_ZN4pqxx9sql_errorD1Ev
libpqxx-4.0.so:_ZN4pqxx9sql_errorD2Ev
libpqxx-4.0.so:_ZNK4pqxx11largeobject6ReasonB5cxx11Ei
libpqxx-4.0.so:_ZNK4pqxx11largeobject6removeERNS_13dbtransactionE
libpqxx-4.0.so:_ZNK4pqxx11largeobject7to_fileERNS_13dbtransactionERKNSt7__cxx1112basic_stringIcSt11char_traitsIcESaIcEEE
libpqxx-4.0.so:_ZNK4pqxx11tablereader13extract_fieldERKNSt7__cxx1112basic_stringIcSt11char_traitsIcESaIcEEERm
libpqxx-4.0.so:_ZNK4pqxx12binarystring2atEm
libpqxx-4.0.so:_ZNK4pqxx12binarystring3strB5cxx11Ev
libpqxx-4.0.so:_ZNK4pqxx12binarystringeqERKS0_
libpqxx-4.0.so:_ZNK4pqxx13connect_async8is_readyEP7pg_conn
libpqxx-4.0.so:_ZNK4pqxx13icursorstream15remove_iteratorEPNS_16icursor_iteratorE
libpqxx-4.0.so:_ZNK4pqxx14subtransaction20check_backendsupportEv
libpqxx-4.0.so:_ZNK4pqxx15connection_base10backendpidEv
libpqxx-4.0.so:_ZNK4pqxx15connection_base10wait_writeEv
libpqxx-4.0.so:_ZNK4pqxx15connection_base14server_versionEv
libpqxx-4.0.so:_ZNK4pqxx15connection_base15prepared_existsERKNSt7__cxx1112basic_stringIcSt11char_traitsIcESaIcEEE
libpqxx-4.0.so:_ZNK4pqxx15connection_base16protocol_versionEv
libpqxx-4.0.so:_ZNK4pqxx15connection_base17get_errorhandlersEv
libpqxx-4.0.so:_ZNK4pqxx15connection_base4sockEv
libpqxx-4.0.so:_ZNK4pqxx15connection_base6ErrMsgEv
libpqxx-4.0.so:_ZNK4pqxx15connection_base7is_openEv
libpqxx-4.0.so:_ZNK4pqxx15connection_base9wait_readEll
libpqxx-4.0.so:_ZNK4pqxx15connection_base9wait_readEv
libpqxx-4.0.so:_ZNK4pqxx16connectionpolicy8is_readyEP7pg_conn
libpqxx-4.0.so:_ZNK4pqxx16icursor_iterator7refreshEv
libpqxx-4.0.so:_ZNK4pqxx16icursor_iteratoreqERKS0_
libpqxx-4.0.so:_ZNK4pqxx16icursor_iteratorltERKS0_
libpqxx-4.0.so:_ZNK4pqxx16transaction_base7esc_rawERKNSt7__cxx1112basic_stringIcSt11char_traitsIcESaIcEEE
libpqxx-4.0.so:_ZNK4pqxx16transaction_base9quote_rawERKNSt7__cxx1112basic_stringIcSt11char_traitsIcESaIcEEE
libpqxx-4.0.so:_ZNK4pqxx17largeobjectaccess4tellEv
libpqxx-4.0.so:_ZNK4pqxx17largeobjectaccess5ctellEv
libpqxx-4.0.so:_ZNK4pqxx28const_reverse_tuple_iterator4baseEv
libpqxx-4.0.so:_ZNK4pqxx29const_reverse_result_iterator4baseEv
libpqxx-4.0.so:_ZNK4pqxx5field12table_columnEv
libpqxx-4.0.so:_ZNK4pqxx5field4nameEv
libpqxx-4.0.so:_ZNK4pqxx5field4sizeEv
libpqxx-4.0.so:_ZNK4pqxx5field4typeEv
libpqxx-4.0.so:_ZNK4pqxx5field5c_strEv
libpqxx-4.0.so:_ZNK4pqxx5field5tableEv
libpqxx-4.0.so:_ZNK4pqxx5field7is_nullEv
libpqxx-4.0.so:_ZNK4pqxx5fieldeqERKS0_
libpqxx-4.0.so:_ZNK4pqxx5tuple11column_typeEj
libpqxx-4.0.so:_ZNK4pqxx5tuple12column_tableEj
libpqxx-4.0.so:_ZNK4pqxx5tuple12table_columnEj
libpqxx-4.0.so:_ZNK4pqxx5tuple13column_numberEPKc
libpqxx-4.0.so:_ZNK4pqxx5tuple2atEPKc
libpqxx-4.0.so:_ZNK4pqxx5tuple2atERKNSt7__cxx1112basic_stringIcSt11char_traitsIcESaIcEEE
libpqxx-4.0.so:_ZNK4pqxx5tuple2atEi
libpqxx-4.0.so:_ZNK4pqxx5tuple2atEj
libpqxx-4.0.so:_ZNK4pqxx5tuple3endEv
libpqxx-4.0.so:_ZNK4pqxx5tuple4backEv
libpqxx-4.0.so:_ZNK4pqxx5tuple4rendEv
libpqxx-4.0.so:_ZNK4pqxx5tuple5beginEv
libpqxx-4.0.so:_ZNK4pqxx5tuple5emptyEv
libpqxx-4.0.so:_ZNK4pqxx5tuple5frontEv
libpqxx-4.0.so:_ZNK4pqxx5tuple5sliceEjj
libpqxx-4.0.so:_ZNK4pqxx5tuple6rbeginEv
libpqxx-4.0.so:_ZNK4pqxx5tupleeqERKS0_
libpqxx-4.0.so:_ZNK4pqxx5tupleixEPKc
libpqxx-4.0.so:_ZNK4pqxx5tupleixERKNSt7__cxx1112basic_stringIcSt11char_traitsIcESaIcEEE
libpqxx-4.0.so:_ZNK4pqxx5tupleixEi
libpqxx-4.0.so:_ZNK4pqxx5tupleixEj
libpqxx-4.0.so:_ZNK4pqxx6result11column_nameEj
libpqxx-4.0.so:_ZNK4pqxx6result11column_typeEj
libpqxx-4.0.so:_ZNK4pqxx6result12column_tableEj
libpqxx-4.0.so:_ZNK4pqxx6result12inserted_oidEv
libpqxx-4.0.so:_ZNK4pqxx6result12table_columnEj
libpqxx-4.0.so:_ZNK4pqxx6result13affected_rowsEv
libpqxx-4.0.so:_ZNK4pqxx6result13column_numberEPKc
libpqxx-4.0.so:_ZNK4pqxx6result2atEm
libpqxx-4.0.so:_ZNK4pqxx6result4rendEv
libpqxx-4.0.so:_ZNK4pqxx6result4sizeEv
libpqxx-4.0.so:_ZNK4pqxx6result5beginEv
libpqxx-4.0.so:_ZNK4pqxx6result5emptyEv
libpqxx-4.0.so:_ZNK4pqxx6result5queryB5cxx11Ev
libpqxx-4.0.so:_ZNK4pqxx6result6rbeginEv
libpqxx-4.0.so:_ZNK4pqxx6result7columnsEv
libpqxx-4.0.so:_ZNK4pqxx6result8GetValueEmj
libpqxx-4.0.so:_ZNK4pqxx6result9CmdStatusEv
libpqxx-4.0.so:_ZNK4pqxx6result9GetIsNullEmj
libpqxx-4.0.so:_ZNK4pqxx6result9GetLengthEmj
libpqxx-4.0.so:_ZNK4pqxx6resulteqERKS0_
libpqxx-4.0.so:_ZNK4pqxx7prepare10invocation4execEv
libpqxx-4.0.so:_ZNK4pqxx7prepare10invocation6existsEv
libpqxx-4.0.so:_ZNK4pqxx8internal10namedclass11descriptionB5cxx11Ev
libpqxx-4.0.so:_ZNK4pqxx8internal20statement_parameters8marshallERNS0_12scoped_arrayIPKcEERNS2_IiEES8_
libpqxx-4.0.so:_ZNK4pqxx8pipeline11is_finishedEl
libpqxx-4.0.so:_ZNK4pqxx9sql_error5queryB5cxx11Ev
libpqxx-4.0.so:_ZThn24_N4pqxx14subtransaction8do_abortEv
libpqxx-4.0.so:_ZThn24_N4pqxx14subtransaction8do_beginEv
libpqxx-4.0.so:_ZThn24_N4pqxx14subtransaction9do_commitEv
libpqxx-4.0.so:_ZThn8_N4pqxx9sql_errorD0Ev
libpqxx-4.0.so:_ZThn8_N4pqxx9sql_errorD1Ev
